target datalayout = "e-m:e-p270:32:32-p271:32:32-p272:64:64-i64:64-i128:128-f80:128-n8:16:32:64-S128"
target triple = "x86_64-pc-linux-gnu"

%struct.Hop_Obj_t_ = type { %union.anon, %union.anon.0, ptr, ptr, i32, i32 }
%union.anon = type { ptr }
%union.anon.0 = type { ptr }
%struct.Vec_Ptr_t_ = type { i32, i32, ptr }
%struct.Hop_Man_t_ = type { ptr, ptr, ptr, ptr, %struct.Hop_Obj_t_, [6 x i32], i32, i32, ptr, i32, ptr, i32, i32, i32, ptr, ptr, ptr, i64, i64 }

; Function Attrs: inlinehint nounwind uwtable
define internal ptr @Hop_NotCond(ptr noundef %0, i32 noundef %1) #1 {
  %3 = alloca ptr, align 8
  %4 = alloca i32, align 4
  store ptr %0, ptr %3, align 8, !tbaa !3
  store i32 %1, ptr %4, align 4, !tbaa !21
  %5 = load ptr, ptr %3, align 8, !tbaa !3
  %6 = ptrtoint ptr %5 to i64
  %7 = load i32, ptr %4, align 4, !tbaa !21
  %8 = sext i32 %7 to i64
  %9 = xor i64 %6, %8
  %10 = inttoptr i64 %9 to ptr
  ret ptr %10
}

; Function Attrs: inlinehint nounwind uwtable
define internal i32 @Hop_IsComplement(ptr noundef %0) #1 {
  %2 = alloca ptr, align 8
  store ptr %0, ptr %2, align 8, !tbaa !3
  %3 = load ptr, ptr %2, align 8, !tbaa !3
  %4 = ptrtoint ptr %3 to i64
  %5 = and i64 %4, 1
  %6 = trunc i64 %5 to i32
  ret i32 %6
}

; Function Attrs: inlinehint nounwind uwtable
define internal ptr @Vec_PtrEntry(ptr noundef %0, i32 noundef %1) #1 {
  %3 = alloca ptr, align 8
  %4 = alloca i32, align 4
  store ptr %0, ptr %3, align 8, !tbaa !8
  store i32 %1, ptr %4, align 4, !tbaa !21
  %5 = load ptr, ptr %3, align 8, !tbaa !8
  %6 = getelementptr inbounds nuw %struct.Vec_Ptr_t_, ptr %5, i32 0, i32 2
  %7 = load ptr, ptr %6, align 8, !tbaa !18
  %8 = load i32, ptr %4, align 4, !tbaa !21
  %9 = sext i32 %8 to i64
  %10 = getelementptr inbounds ptr, ptr %7, i64 %9
  %11 = load ptr, ptr %10, align 8, !tbaa !14
  ret ptr %11
}

; Function Attrs: inlinehint nounwind uwtable
define internal i32 @Vec_PtrSize(ptr noundef %0) #1 {
  %2 = alloca ptr, align 8
  store ptr %0, ptr %2, align 8, !tbaa !8
  %3 = load ptr, ptr %2, align 8, !tbaa !8
  %4 = getelementptr inbounds nuw %struct.Vec_Ptr_t_, ptr %3, i32 0, i32 1
  %5 = load i32, ptr %4, align 4, !tbaa !15
  ret i32 %5
}

; Function Attrs: inlinehint nounwind uwtable
define internal i32 @Hop_ObjIsConst1(ptr noundef %0) #1 {
  %2 = alloca ptr, align 8
  store ptr %0, ptr %2, align 8, !tbaa !3
  %3 = load ptr, ptr %2, align 8, !tbaa !3
  %4 = getelementptr inbounds nuw %struct.Hop_Obj_t_, ptr %3, i32 0, i32 4
  %5 = load i32, ptr %4, align 8
  %6 = and i32 %5, 7
  %7 = icmp eq i32 %6, 1
  %8 = zext i1 %7 to i32
  ret i32 %8
}

; Function Attrs: inlinehint nounwind uwtable
define internal ptr @Hop_Regular(ptr noundef %0) #1 {
  %2 = alloca ptr, align 8
  store ptr %0, ptr %2, align 8, !tbaa !3
  %3 = load ptr, ptr %2, align 8, !tbaa !3
  %4 = ptrtoint ptr %3 to i64
  %5 = and i64 %4, -2
  %6 = inttoptr i64 %5 to ptr
  ret ptr %6
}

; Function Attrs: nounwind uwtable
define ptr @Hop_Permute(ptr noundef %0, ptr noundef %1, i32 noundef %2, ptr noundef %3) #0 {
  %5 = alloca ptr, align 8
  %6 = alloca ptr, align 8
  %7 = alloca ptr, align 8
  %8 = alloca i32, align 4
  %9 = alloca ptr, align 8
  %10 = alloca ptr, align 8
  %11 = alloca i32, align 4
  %12 = alloca i32, align 4
  store ptr %0, ptr %6, align 8, !tbaa !19
  store ptr %1, ptr %7, align 8, !tbaa !3
  store i32 %2, ptr %8, align 4, !tbaa !21
  store ptr %3, ptr %9, align 8, !tbaa !46
  call void @llvm.lifetime.start.p0(i64 8, ptr %10) #7
  call void @llvm.lifetime.start.p0(i64 4, ptr %11) #7
  %13 = load ptr, ptr %7, align 8, !tbaa !3
  %14 = call ptr @Hop_Regular(ptr noundef %13)
  %15 = call i32 @Hop_ObjIsConst1(ptr noundef %14)
  %16 = icmp ne i32 %15, 0
  br i1 %16, label %17, label %19

17:                                               ; preds = %4
  %18 = load ptr, ptr %7, align 8, !tbaa !3
  store ptr %18, ptr %5, align 8
  store i32 1, ptr %12, align 4
  br label %66

19:                                               ; preds = %4
  store i32 0, ptr %11, align 4, !tbaa !21
  br label %20

20:                                               ; preds = %50, %19
  %21 = load i32, ptr %11, align 4, !tbaa !21
  %22 = load ptr, ptr %6, align 8, !tbaa !19
  %23 = getelementptr inbounds nuw %struct.Hop_Man_t_, ptr %22, i32 0, i32 0
  %24 = load ptr, ptr %23, align 8, !tbaa !32
  %25 = call i32 @Vec_PtrSize(ptr noundef %24)
  %26 = icmp slt i32 %21, %25
  br i1 %26, label %27, label %33

27:                                               ; preds = %20
  %28 = load ptr, ptr %6, align 8, !tbaa !19
  %29 = getelementptr inbounds nuw %struct.Hop_Man_t_, ptr %28, i32 0, i32 0
  %30 = load ptr, ptr %29, align 8, !tbaa !32
  %31 = load i32, ptr %11, align 4, !tbaa !21
  %32 = call ptr @Vec_PtrEntry(ptr noundef %30, i32 noundef %31)
  store ptr %32, ptr %10, align 8, !tbaa !3
  br label %33

33:                                               ; preds = %27, %20
  %34 = phi i1 [ false, %20 ], [ true, %27 ]
  br i1 %34, label %35, label %53

35:                                               ; preds = %33
  %36 = load i32, ptr %11, align 4, !tbaa !21
  %37 = load i32, ptr %8, align 4, !tbaa !21
  %38 = icmp eq i32 %36, %37
  br i1 %38, label %39, label %40

39:                                               ; preds = %35
  br label %53

40:                                               ; preds = %35
  %41 = load ptr, ptr %6, align 8, !tbaa !19
  %42 = load ptr, ptr %9, align 8, !tbaa !46
  %43 = load i32, ptr %11, align 4, !tbaa !21
  %44 = sext i32 %43 to i64
  %45 = getelementptr inbounds i32, ptr %42, i64 %44
  %46 = load i32, ptr %45, align 4, !tbaa !21
  %47 = call ptr @Hop_IthVar(ptr noundef %41, i32 noundef %46)
  %48 = load ptr, ptr %10, align 8, !tbaa !3
  %49 = getelementptr inbounds nuw %struct.Hop_Obj_t_, ptr %48, i32 0, i32 0
  store ptr %47, ptr %49, align 8, !tbaa !31
  br label %50

50:                                               ; preds = %40
  %51 = load i32, ptr %11, align 4, !tbaa !21
  %52 = add nsw i32 %51, 1
  store i32 %52, ptr %11, align 4, !tbaa !21
  br label %20, !llvm.loop !48

53:                                               ; preds = %39, %33
  %54 = load ptr, ptr %6, align 8, !tbaa !19
  %55 = load ptr, ptr %7, align 8, !tbaa !3
  %56 = call ptr @Hop_Regular(ptr noundef %55)
  call void @Hop_Remap_rec(ptr noundef %54, ptr noundef %56)
  %57 = load ptr, ptr %7, align 8, !tbaa !3
  %58 = call ptr @Hop_Regular(ptr noundef %57)
  call void @Hop_ConeUnmark_rec(ptr noundef %58)
  %59 = load ptr, ptr %7, align 8, !tbaa !3
  %60 = call ptr @Hop_Regular(ptr noundef %59)
  %61 = getelementptr inbounds nuw %struct.Hop_Obj_t_, ptr %60, i32 0, i32 0
  %62 = load ptr, ptr %61, align 8, !tbaa !31
  %63 = load ptr, ptr %7, align 8, !tbaa !3
  %64 = call i32 @Hop_IsComplement(ptr noundef %63)
  %65 = call ptr @Hop_NotCond(ptr noundef %62, i32 noundef %64)
  store ptr %65, ptr %5, align 8
  store i32 1, ptr %12, align 4
  br label %66

66:                                               ; preds = %53, %17
  call void @llvm.lifetime.end.p0(i64 4, ptr %11) #7
  call void @llvm.lifetime.end.p0(i64 8, ptr %10) #7
  %67 = load ptr, ptr %5, align 8
  ret ptr %67
}