; Function Attrs: nounwind uwtable
define ptr @Hop_Permute(ptr noundef %0, ptr noundef %1, i32 noundef %2, ptr noundef readonly captures(none) %3) local_unnamed_addr #0 {
  %5 = ptrtoint ptr %1 to i64
  %6 = and i64 %5, -2
  %7 = inttoptr i64 %6 to ptr
  %8 = getelementptr i8, ptr %7, i64 32
  %.val20 = load i32, ptr %8, align 8
  %9 = and i32 %.val20, 7
  %.not = icmp eq i32 %9, 1
  br i1 %.not, label %32, label %.preheader

.preheader:                                       ; preds = %4
  %10 = load ptr, ptr %0, align 8, !tbaa !30
  %11 = getelementptr i8, ptr %10, i64 4
  %.val21 = load i32, ptr %11, align 4, !tbaa !11
  %12 = icmp slt i32 %.val21, 1
  %13 = icmp eq i32 %2, 0
  %or.cond22 = or i1 %13, %12
  br i1 %or.cond22, label %.critedge, label %.lr.ph.preheader

.lr.ph.preheader:                                 ; preds = %.preheader
  %14 = zext i32 %2 to i64
  br label %.lr.ph

.lr.ph:                                           ; preds = %.lr.ph.preheader, %.lr.ph
  %indvars.iv = phi i64 [ 0, %.lr.ph.preheader ], [ %indvars.iv.next, %.lr.ph ]
  %15 = phi ptr [ %10, %.lr.ph.preheader ], [ %22, %.lr.ph ]
  %16 = getelementptr i8, ptr %15, i64 8
  %.val19 = load ptr, ptr %16, align 8, !tbaa !14
  %17 = getelementptr inbounds nuw ptr, ptr %.val19, i64 %indvars.iv
  %18 = load ptr, ptr %17, align 8, !tbaa !15
  %19 = getelementptr inbounds nuw i32, ptr %3, i64 %indvars.iv
  %20 = load i32, ptr %19, align 4, !tbaa !16
  %21 = tail call ptr @Hop_IthVar(ptr noundef nonnull %0, i32 noundef %20) #11
  store ptr %21, ptr %18, align 8, !tbaa !29
  %indvars.iv.next = add nuw nsw i64 %indvars.iv, 1
  %22 = load ptr, ptr %0, align 8, !tbaa !30
  %23 = getelementptr i8, ptr %22, i64 4
  %.val = load i32, ptr %23, align 4, !tbaa !11
  %24 = sext i32 %.val to i64
  %25 = icmp sge i64 %indvars.iv.next, %24
  %26 = icmp eq i64 %indvars.iv.next, %14
  %or.cond = or i1 %26, %25
  br i1 %or.cond, label %.critedge, label %.lr.ph, !llvm.loop !43

.critedge:                                        ; preds = %.lr.ph, %.preheader
  tail call void @Hop_Remap_rec(ptr noundef nonnull %0, ptr noundef %7)
  tail call void @Hop_ConeUnmark_rec(ptr noundef %7)
  %27 = load ptr, ptr %7, align 8, !tbaa !29
  %28 = and i64 %5, 1
  %29 = ptrtoint ptr %27 to i64
  %30 = xor i64 %28, %29
  %31 = inttoptr i64 %30 to ptr
  br label %32

32:                                               ; preds = %4, %.critedge
  %.018 = phi ptr [ %31, %.critedge ], [ %1, %4 ]
  ret ptr %.018
}